target datalayout = "e-m:e-p270:32:32-p271:32:32-p272:64:64-i64:64-i128:128-f80:128-n8:16:32:64-S128"
target triple = "x86_64-pc-linux-gnu"

%struct.ParallelVacuumState = type { ptr, ptr, ptr, i32, ptr, ptr, ptr, ptr, ptr, ptr, i32, i32, i32, ptr, ptr, ptr, ptr, i32 }
%struct.PVIndStats = type { i32, i8, i8, %struct.IndexBulkDeleteResult }
%struct.IndexBulkDeleteResult = type { i32, i8, double, double, i32, i32, i32 }

; Function Attrs: nounwind uwtable
define dso_local void @parallel_vacuum_end(ptr noundef %0, ptr noundef %1) #0 {
  %3 = alloca ptr, align 8
  %4 = alloca ptr, align 8
  %5 = alloca i32, align 4
  %6 = alloca ptr, align 8
  store ptr %0, ptr %3, align 8
  store ptr %1, ptr %4, align 8
  call void @llvm.lifetime.start.p0(i64 4, ptr %5) #9
  store i32 0, ptr %5, align 4
  br label %7

7:                                                ; preds = %44, %2
  %8 = load i32, ptr %5, align 4
  %9 = load ptr, ptr %3, align 8
  %10 = getelementptr inbounds nuw %struct.ParallelVacuumState, ptr %9, i32 0, i32 3
  %11 = load i32, ptr %10, align 8
  %12 = icmp slt i32 %8, %11
  br i1 %12, label %14, label %13

13:                                               ; preds = %7
  call void @llvm.lifetime.end.p0(i64 4, ptr %5) #9
  br label %47

14:                                               ; preds = %7
  call void @llvm.lifetime.start.p0(i64 8, ptr %6) #9
  %15 = load ptr, ptr %3, align 8
  %16 = getelementptr inbounds nuw %struct.ParallelVacuumState, ptr %15, i32 0, i32 5
  %17 = load ptr, ptr %16, align 8
  %18 = load i32, ptr %5, align 4
  %19 = sext i32 %18 to i64
  %20 = getelementptr inbounds %struct.PVIndStats, ptr %17, i64 %19
  store ptr %20, ptr %6, align 8
  %21 = load ptr, ptr %6, align 8
  %22 = getelementptr inbounds nuw %struct.PVIndStats, ptr %21, i32 0, i32 2
  %23 = load i8, ptr %22, align 1, !range !6, !noundef !7
  %24 = trunc i8 %23 to i1
  br i1 %24, label %25, label %38

25:                                               ; preds = %14
  %26 = call ptr @palloc0(i64 noundef 40)
  %27 = load ptr, ptr %4, align 8
  %28 = load i32, ptr %5, align 4
  %29 = sext i32 %28 to i64
  %30 = getelementptr inbounds ptr, ptr %27, i64 %29
  store ptr %26, ptr %30, align 8
  %31 = load ptr, ptr %4, align 8
  %32 = load i32, ptr %5, align 4
  %33 = sext i32 %32 to i64
  %34 = getelementptr inbounds ptr, ptr %31, i64 %33
  %35 = load ptr, ptr %34, align 8
  %36 = load ptr, ptr %6, align 8
  %37 = getelementptr inbounds nuw %struct.PVIndStats, ptr %36, i32 0, i32 3
  call void @llvm.memcpy.p0.p0.i64(ptr align 8 %35, ptr align 8 %37, i64 40, i1 false)
  br label %43

38:                                               ; preds = %14
  %39 = load ptr, ptr %4, align 8
  %40 = load i32, ptr %5, align 4
  %41 = sext i32 %40 to i64
  %42 = getelementptr inbounds ptr, ptr %39, i64 %41
  store ptr null, ptr %42, align 8
  br label %43

43:                                               ; preds = %38, %25
  call void @llvm.lifetime.end.p0(i64 8, ptr %6) #9
  br label %44

44:                                               ; preds = %43
  %45 = load i32, ptr %5, align 4
  %46 = add i32 %45, 1
  store i32 %46, ptr %5, align 4
  br label %7, !llvm.loop !11

47:                                               ; preds = %13
  %48 = load ptr, ptr %3, align 8
  %49 = getelementptr inbounds nuw %struct.ParallelVacuumState, ptr %48, i32 0, i32 6
  %50 = load ptr, ptr %49, align 8
  call void @TidStoreDestroy(ptr noundef %50)
  %51 = load ptr, ptr %3, align 8
  %52 = getelementptr inbounds nuw %struct.ParallelVacuumState, ptr %51, i32 0, i32 0
  %53 = load ptr, ptr %52, align 8
  call void @DestroyParallelContext(ptr noundef %53)
  call void @ExitParallelMode()
  %54 = load ptr, ptr %3, align 8
  %55 = getelementptr inbounds nuw %struct.ParallelVacuumState, ptr %54, i32 0, i32 9
  %56 = load ptr, ptr %55, align 8
  call void @pfree(ptr noundef %56)
  %57 = load ptr, ptr %3, align 8
  call void @pfree(ptr noundef %57)
  ret void
}