; Function Attrs: nounwind uwtable
define dso_local void @parallel_vacuum_end(ptr noundef %0, ptr noundef writeonly captures(none) %1) local_unnamed_addr #0 {
  %3 = getelementptr inbounds nuw i8, ptr %0, i64 24
  %4 = load i32, ptr %3, align 8
  %5 = icmp sgt i32 %4, 0
  br i1 %5, label %.lr.ph, label %._crit_edge

.lr.ph:                                           ; preds = %2
  %6 = getelementptr inbounds nuw i8, ptr %0, i64 40
  br label %12

._crit_edge:                                      ; preds = %24, %2
  %7 = getelementptr inbounds nuw i8, ptr %0, i64 48
  %8 = load ptr, ptr %7, align 8
  tail call void @TidStoreDestroy(ptr noundef %8) #10
  %9 = load ptr, ptr %0, align 8
  tail call void @DestroyParallelContext(ptr noundef %9) #10
  tail call void @ExitParallelMode() #10
  %10 = getelementptr inbounds nuw i8, ptr %0, i64 72
  %11 = load ptr, ptr %10, align 8
  tail call void @pfree(ptr noundef %11) #10
  tail call void @pfree(ptr noundef nonnull %0) #10
  ret void

12:                                               ; preds = %.lr.ph, %24
  %indvars.iv = phi i64 [ 0, %.lr.ph ], [ %indvars.iv.next, %24 ]
  %13 = load ptr, ptr %6, align 8
  %14 = getelementptr inbounds nuw %struct.PVIndStats, ptr %13, i64 %indvars.iv
  %15 = getelementptr inbounds nuw i8, ptr %14, i64 5
  %16 = load i8, ptr %15, align 1, !range !4, !noundef !5
  %17 = trunc nuw i8 %16 to i1
  br i1 %17, label %18, label %22

18:                                               ; preds = %12
  %19 = tail call ptr @palloc0(i64 noundef 40) #10
  %20 = getelementptr inbounds nuw ptr, ptr %1, i64 %indvars.iv
  store ptr %19, ptr %20, align 8
  %21 = getelementptr inbounds nuw i8, ptr %14, i64 8
  tail call void @llvm.memcpy.p0.p0.i64(ptr noundef nonnull align 8 dereferenceable(40) %19, ptr noundef nonnull align 8 dereferenceable(40) %21, i64 40, i1 false)
  br label %24

22:                                               ; preds = %12
  %23 = getelementptr inbounds nuw ptr, ptr %1, i64 %indvars.iv
  store ptr null, ptr %23, align 8
  br label %24

24:                                               ; preds = %22, %18
  %indvars.iv.next = add nuw nsw i64 %indvars.iv, 1
  %25 = load i32, ptr %3, align 8
  %26 = sext i32 %25 to i64
  %27 = icmp slt i64 %indvars.iv.next, %26
  br i1 %27, label %12, label %._crit_edge, !llvm.loop !9
}